target datalayout = "e-m:e-p270:32:32-p271:32:32-p272:64:64-i64:64-i128:128-f80:128-n8:16:32:64-S128"
target triple = "x86_64-pc-linux-gnu"

%struct.Node = type { i32 }
%struct.Plan = type { i32, i32, double, double, double, i32, i8, i8, i8, i32, ptr, ptr, ptr, ptr, ptr, ptr, ptr }
%struct.Scan = type { %struct.Plan, i32 }
%struct.CustomScan = type { %struct.Scan, i32, ptr, ptr, ptr, ptr, ptr, ptr }

@.str.326 = private unnamed_addr constant [1 x i8] zeroinitializer, align 1

; Function Attrs: nounwind uwtable
define internal ptr @nullable_string(ptr noundef %0, i32 noundef %1) #0 {
  %3 = alloca ptr, align 8
  %4 = alloca ptr, align 8
  %5 = alloca i32, align 4
  store ptr %0, ptr %4, align 8
  store i32 %1, ptr %5, align 4
  %6 = load i32, ptr %5, align 4
  %7 = icmp eq i32 %6, 0
  br i1 %7, label %8, label %9

8:                                                ; preds = %2
  store ptr null, ptr %3, align 8
  br label %30

9:                                                ; preds = %2
  %10 = load i32, ptr %5, align 4
  %11 = icmp eq i32 %10, 2
  br i1 %11, label %12, label %26

12:                                               ; preds = %9
  %13 = load ptr, ptr %4, align 8
  %14 = getelementptr inbounds i8, ptr %13, i64 0
  %15 = load i8, ptr %14, align 1
  %16 = sext i8 %15 to i32
  %17 = icmp eq i32 %16, 34
  br i1 %17, label %18, label %26

18:                                               ; preds = %12
  %19 = load ptr, ptr %4, align 8
  %20 = getelementptr inbounds i8, ptr %19, i64 1
  %21 = load i8, ptr %20, align 1
  %22 = sext i8 %21 to i32
  %23 = icmp eq i32 %22, 34
  br i1 %23, label %24, label %26

24:                                               ; preds = %18
  %25 = call ptr @pstrdup(ptr noundef @.str.326)
  store ptr %25, ptr %3, align 8
  br label %30

26:                                               ; preds = %18, %12, %9
  %27 = load ptr, ptr %4, align 8
  %28 = load i32, ptr %5, align 4
  %29 = call ptr @debackslash(ptr noundef %27, i32 noundef %28)
  store ptr %29, ptr %3, align 8
  br label %30

30:                                               ; preds = %26, %24, %8
  %31 = load ptr, ptr %3, align 8
  ret ptr %31
}

; Function Attrs: inlinehint nounwind willreturn memory(read) uwtable
define available_externally double @atof(ptr noundef nonnull %0) #6 {
  %2 = alloca ptr, align 8
  store ptr %0, ptr %2, align 8
  %3 = load ptr, ptr %2, align 8
  %4 = call double @strtod(ptr noundef %3, ptr noundef null) #9
  ret double %4
}

; Function Attrs: inlinehint nounwind willreturn memory(read) uwtable
define available_externally i32 @atoi(ptr noundef nonnull %0) #6 {
  %2 = alloca ptr, align 8
  store ptr %0, ptr %2, align 8
  %3 = load ptr, ptr %2, align 8
  %4 = call i64 @strtol(ptr noundef %3, ptr noundef null, i32 noundef 10) #9
  %5 = trunc i64 %4 to i32
  ret i32 %5
}

; Function Attrs: inlinehint nounwind uwtable
define internal ptr @newNode(i64 noundef %0, i32 noundef %1) #7 {
  %3 = alloca i64, align 8
  %4 = alloca i32, align 4
  %5 = alloca ptr, align 8
  store i64 %0, ptr %3, align 8
  store i32 %1, ptr %4, align 4
  call void @llvm.lifetime.start.p0(i64 8, ptr %5) #9
  %6 = load i64, ptr %3, align 8
  %7 = call ptr @palloc0(i64 noundef %6)
  store ptr %7, ptr %5, align 8
  %8 = load i32, ptr %4, align 4
  %9 = load ptr, ptr %5, align 8
  %10 = getelementptr inbounds nuw %struct.Node, ptr %9, i32 0, i32 0
  store i32 %8, ptr %10, align 4
  %11 = load ptr, ptr %5, align 8
  call void @llvm.lifetime.end.p0(i64 8, ptr %5) #9
  ret ptr %11
}

; Function Attrs: nounwind uwtable
define internal ptr @_readCustomScan() #0 {
  %1 = alloca ptr, align 8
  %2 = alloca ptr, align 8
  %3 = alloca i32, align 4
  %4 = alloca ptr, align 8
  %5 = alloca ptr, align 8
  call void @llvm.lifetime.start.p0(i64 8, ptr %1) #9
  %6 = call ptr @newNode(i64 noundef 168, i32 noundef 354)
  store ptr %6, ptr %1, align 8
  call void @llvm.lifetime.start.p0(i64 8, ptr %2) #9
  call void @llvm.lifetime.start.p0(i64 4, ptr %3) #9
  %7 = call ptr @pg_strtok(ptr noundef %3)
  store ptr %7, ptr %2, align 8
  %8 = call ptr @pg_strtok(ptr noundef %3)
  store ptr %8, ptr %2, align 8
  %9 = load ptr, ptr %2, align 8
  %10 = call i32 @atoi(ptr noundef %9) #11
  %11 = load ptr, ptr %1, align 8
  %12 = getelementptr inbounds nuw %struct.CustomScan, ptr %11, i32 0, i32 0
  %13 = getelementptr inbounds nuw %struct.Scan, ptr %12, i32 0, i32 0
  %14 = getelementptr inbounds nuw %struct.Plan, ptr %13, i32 0, i32 1
  store i32 %10, ptr %14, align 4
  %15 = call ptr @pg_strtok(ptr noundef %3)
  store ptr %15, ptr %2, align 8
  %16 = call ptr @pg_strtok(ptr noundef %3)
  store ptr %16, ptr %2, align 8
  %17 = load ptr, ptr %2, align 8
  %18 = call double @atof(ptr noundef %17) #11
  %19 = load ptr, ptr %1, align 8
  %20 = getelementptr inbounds nuw %struct.CustomScan, ptr %19, i32 0, i32 0
  %21 = getelementptr inbounds nuw %struct.Scan, ptr %20, i32 0, i32 0
  %22 = getelementptr inbounds nuw %struct.Plan, ptr %21, i32 0, i32 2
  store double %18, ptr %22, align 8
  %23 = call ptr @pg_strtok(ptr noundef %3)
  store ptr %23, ptr %2, align 8
  %24 = call ptr @pg_strtok(ptr noundef %3)
  store ptr %24, ptr %2, align 8
  %25 = load ptr, ptr %2, align 8
  %26 = call double @atof(ptr noundef %25) #11
  %27 = load ptr, ptr %1, align 8
  %28 = getelementptr inbounds nuw %struct.CustomScan, ptr %27, i32 0, i32 0
  %29 = getelementptr inbounds nuw %struct.Scan, ptr %28, i32 0, i32 0
  %30 = getelementptr inbounds nuw %struct.Plan, ptr %29, i32 0, i32 3
  store double %26, ptr %30, align 8
  %31 = call ptr @pg_strtok(ptr noundef %3)
  store ptr %31, ptr %2, align 8
  %32 = call ptr @pg_strtok(ptr noundef %3)
  store ptr %32, ptr %2, align 8
  %33 = load ptr, ptr %2, align 8
  %34 = call double @atof(ptr noundef %33) #11
  %35 = load ptr, ptr %1, align 8
  %36 = getelementptr inbounds nuw %struct.CustomScan, ptr %35, i32 0, i32 0
  %37 = getelementptr inbounds nuw %struct.Scan, ptr %36, i32 0, i32 0
  %38 = getelementptr inbounds nuw %struct.Plan, ptr %37, i32 0, i32 4
  store double %34, ptr %38, align 8
  %39 = call ptr @pg_strtok(ptr noundef %3)
  store ptr %39, ptr %2, align 8
  %40 = call ptr @pg_strtok(ptr noundef %3)
  store ptr %40, ptr %2, align 8
  %41 = load ptr, ptr %2, align 8
  %42 = call i32 @atoi(ptr noundef %41) #11
  %43 = load ptr, ptr %1, align 8
  %44 = getelementptr inbounds nuw %struct.CustomScan, ptr %43, i32 0, i32 0
  %45 = getelementptr inbounds nuw %struct.Scan, ptr %44, i32 0, i32 0
  %46 = getelementptr inbounds nuw %struct.Plan, ptr %45, i32 0, i32 5
  store i32 %42, ptr %46, align 8
  %47 = call ptr @pg_strtok(ptr noundef %3)
  store ptr %47, ptr %2, align 8
  %48 = call ptr @pg_strtok(ptr noundef %3)
  store ptr %48, ptr %2, align 8
  %49 = load ptr, ptr %2, align 8
  %50 = load i8, ptr %49, align 1
  %51 = sext i8 %50 to i32
  %52 = icmp eq i32 %51, 116
  %53 = select i1 %52, i32 1, i32 0
  %54 = icmp ne i32 %53, 0
  %55 = load ptr, ptr %1, align 8
  %56 = getelementptr inbounds nuw %struct.CustomScan, ptr %55, i32 0, i32 0
  %57 = getelementptr inbounds nuw %struct.Scan, ptr %56, i32 0, i32 0
  %58 = getelementptr inbounds nuw %struct.Plan, ptr %57, i32 0, i32 6
  %59 = zext i1 %54 to i8
  store i8 %59, ptr %58, align 4
  %60 = call ptr @pg_strtok(ptr noundef %3)
  store ptr %60, ptr %2, align 8
  %61 = call ptr @pg_strtok(ptr noundef %3)
  store ptr %61, ptr %2, align 8
  %62 = load ptr, ptr %2, align 8
  %63 = load i8, ptr %62, align 1
  %64 = sext i8 %63 to i32
  %65 = icmp eq i32 %64, 116
  %66 = select i1 %65, i32 1, i32 0
  %67 = icmp ne i32 %66, 0
  %68 = load ptr, ptr %1, align 8
  %69 = getelementptr inbounds nuw %struct.CustomScan, ptr %68, i32 0, i32 0
  %70 = getelementptr inbounds nuw %struct.Scan, ptr %69, i32 0, i32 0
  %71 = getelementptr inbounds nuw %struct.Plan, ptr %70, i32 0, i32 7
  %72 = zext i1 %67 to i8
  store i8 %72, ptr %71, align 1
  %73 = call ptr @pg_strtok(ptr noundef %3)
  store ptr %73, ptr %2, align 8
  %74 = call ptr @pg_strtok(ptr noundef %3)
  store ptr %74, ptr %2, align 8
  %75 = load ptr, ptr %2, align 8
  %76 = load i8, ptr %75, align 1
  %77 = sext i8 %76 to i32
  %78 = icmp eq i32 %77, 116
  %79 = select i1 %78, i32 1, i32 0
  %80 = icmp ne i32 %79, 0
  %81 = load ptr, ptr %1, align 8
  %82 = getelementptr inbounds nuw %struct.CustomScan, ptr %81, i32 0, i32 0
  %83 = getelementptr inbounds nuw %struct.Scan, ptr %82, i32 0, i32 0
  %84 = getelementptr inbounds nuw %struct.Plan, ptr %83, i32 0, i32 8
  %85 = zext i1 %80 to i8
  store i8 %85, ptr %84, align 2
  %86 = call ptr @pg_strtok(ptr noundef %3)
  store ptr %86, ptr %2, align 8
  %87 = call ptr @pg_strtok(ptr noundef %3)
  store ptr %87, ptr %2, align 8
  %88 = load ptr, ptr %2, align 8
  %89 = call i32 @atoi(ptr noundef %88) #11
  %90 = load ptr, ptr %1, align 8
  %91 = getelementptr inbounds nuw %struct.CustomScan, ptr %90, i32 0, i32 0
  %92 = getelementptr inbounds nuw %struct.Scan, ptr %91, i32 0, i32 0
  %93 = getelementptr inbounds nuw %struct.Plan, ptr %92, i32 0, i32 9
  store i32 %89, ptr %93, align 8
  %94 = call ptr @pg_strtok(ptr noundef %3)
  store ptr %94, ptr %2, align 8
  %95 = call ptr @nodeRead(ptr noundef null, i32 noundef 0)
  %96 = load ptr, ptr %1, align 8
  %97 = getelementptr inbounds nuw %struct.CustomScan, ptr %96, i32 0, i32 0
  %98 = getelementptr inbounds nuw %struct.Scan, ptr %97, i32 0, i32 0
  %99 = getelementptr inbounds nuw %struct.Plan, ptr %98, i32 0, i32 10
  store ptr %95, ptr %99, align 8
  %100 = call ptr @pg_strtok(ptr noundef %3)
  store ptr %100, ptr %2, align 8
  %101 = call ptr @nodeRead(ptr noundef null, i32 noundef 0)
  %102 = load ptr, ptr %1, align 8
  %103 = getelementptr inbounds nuw %struct.CustomScan, ptr %102, i32 0, i32 0
  %104 = getelementptr inbounds nuw %struct.Scan, ptr %103, i32 0, i32 0
  %105 = getelementptr inbounds nuw %struct.Plan, ptr %104, i32 0, i32 11
  store ptr %101, ptr %105, align 8
  %106 = call ptr @pg_strtok(ptr noundef %3)
  store ptr %106, ptr %2, align 8
  %107 = call ptr @nodeRead(ptr noundef null, i32 noundef 0)
  %108 = load ptr, ptr %1, align 8
  %109 = getelementptr inbounds nuw %struct.CustomScan, ptr %108, i32 0, i32 0
  %110 = getelementptr inbounds nuw %struct.Scan, ptr %109, i32 0, i32 0
  %111 = getelementptr inbounds nuw %struct.Plan, ptr %110, i32 0, i32 12
  store ptr %107, ptr %111, align 8
  %112 = call ptr @pg_strtok(ptr noundef %3)
  store ptr %112, ptr %2, align 8
  %113 = call ptr @nodeRead(ptr noundef null, i32 noundef 0)
  %114 = load ptr, ptr %1, align 8
  %115 = getelementptr inbounds nuw %struct.CustomScan, ptr %114, i32 0, i32 0
  %116 = getelementptr inbounds nuw %struct.Scan, ptr %115, i32 0, i32 0
  %117 = getelementptr inbounds nuw %struct.Plan, ptr %116, i32 0, i32 13
  store ptr %113, ptr %117, align 8
  %118 = call ptr @pg_strtok(ptr noundef %3)
  store ptr %118, ptr %2, align 8
  %119 = call ptr @nodeRead(ptr noundef null, i32 noundef 0)
  %120 = load ptr, ptr %1, align 8
  %121 = getelementptr inbounds nuw %struct.CustomScan, ptr %120, i32 0, i32 0
  %122 = getelementptr inbounds nuw %struct.Scan, ptr %121, i32 0, i32 0
  %123 = getelementptr inbounds nuw %struct.Plan, ptr %122, i32 0, i32 14
  store ptr %119, ptr %123, align 8
  %124 = call ptr @pg_strtok(ptr noundef %3)
  store ptr %124, ptr %2, align 8
  %125 = call ptr @_readBitmapset()
  %126 = load ptr, ptr %1, align 8
  %127 = getelementptr inbounds nuw %struct.CustomScan, ptr %126, i32 0, i32 0
  %128 = getelementptr inbounds nuw %struct.Scan, ptr %127, i32 0, i32 0
  %129 = getelementptr inbounds nuw %struct.Plan, ptr %128, i32 0, i32 15
  store ptr %125, ptr %129, align 8
  %130 = call ptr @pg_strtok(ptr noundef %3)
  store ptr %130, ptr %2, align 8
  %131 = call ptr @_readBitmapset()
  %132 = load ptr, ptr %1, align 8
  %133 = getelementptr inbounds nuw %struct.CustomScan, ptr %132, i32 0, i32 0
  %134 = getelementptr inbounds nuw %struct.Scan, ptr %133, i32 0, i32 0
  %135 = getelementptr inbounds nuw %struct.Plan, ptr %134, i32 0, i32 16
  store ptr %131, ptr %135, align 8
  %136 = call ptr @pg_strtok(ptr noundef %3)
  store ptr %136, ptr %2, align 8
  %137 = call ptr @pg_strtok(ptr noundef %3)
  store ptr %137, ptr %2, align 8
  %138 = load ptr, ptr %2, align 8
  %139 = call i64 @strtoul(ptr noundef %138, ptr noundef null, i32 noundef 10) #9
  %140 = trunc i64 %139 to i32
  %141 = load ptr, ptr %1, align 8
  %142 = getelementptr inbounds nuw %struct.CustomScan, ptr %141, i32 0, i32 0
  %143 = getelementptr inbounds nuw %struct.Scan, ptr %142, i32 0, i32 1
  store i32 %140, ptr %143, align 8
  %144 = call ptr @pg_strtok(ptr noundef %3)
  store ptr %144, ptr %2, align 8
  %145 = call ptr @pg_strtok(ptr noundef %3)
  store ptr %145, ptr %2, align 8
  %146 = load ptr, ptr %2, align 8
  %147 = call i64 @strtoul(ptr noundef %146, ptr noundef null, i32 noundef 10) #9
  %148 = trunc i64 %147 to i32
  %149 = load ptr, ptr %1, align 8
  %150 = getelementptr inbounds nuw %struct.CustomScan, ptr %149, i32 0, i32 1
  store i32 %148, ptr %150, align 8
  %151 = call ptr @pg_strtok(ptr noundef %3)
  store ptr %151, ptr %2, align 8
  %152 = call ptr @nodeRead(ptr noundef null, i32 noundef 0)
  %153 = load ptr, ptr %1, align 8
  %154 = getelementptr inbounds nuw %struct.CustomScan, ptr %153, i32 0, i32 2
  store ptr %152, ptr %154, align 8
  %155 = call ptr @pg_strtok(ptr noundef %3)
  store ptr %155, ptr %2, align 8
  %156 = call ptr @nodeRead(ptr noundef null, i32 noundef 0)
  %157 = load ptr, ptr %1, align 8
  %158 = getelementptr inbounds nuw %struct.CustomScan, ptr %157, i32 0, i32 3
  store ptr %156, ptr %158, align 8
  %159 = call ptr @pg_strtok(ptr noundef %3)
  store ptr %159, ptr %2, align 8
  %160 = call ptr @nodeRead(ptr noundef null, i32 noundef 0)
  %161 = load ptr, ptr %1, align 8
  %162 = getelementptr inbounds nuw %struct.CustomScan, ptr %161, i32 0, i32 4
  store ptr %160, ptr %162, align 8
  %163 = call ptr @pg_strtok(ptr noundef %3)
  store ptr %163, ptr %2, align 8
  %164 = call ptr @nodeRead(ptr noundef null, i32 noundef 0)
  %165 = load ptr, ptr %1, align 8
  %166 = getelementptr inbounds nuw %struct.CustomScan, ptr %165, i32 0, i32 5
  store ptr %164, ptr %166, align 8
  %167 = call ptr @pg_strtok(ptr noundef %3)
  store ptr %167, ptr %2, align 8
  %168 = call ptr @_readBitmapset()
  %169 = load ptr, ptr %1, align 8
  %170 = getelementptr inbounds nuw %struct.CustomScan, ptr %169, i32 0, i32 6
  store ptr %168, ptr %170, align 8
  call void @llvm.lifetime.start.p0(i64 8, ptr %4) #9
  call void @llvm.lifetime.start.p0(i64 8, ptr %5) #9
  %171 = call ptr @pg_strtok(ptr noundef %3)
  store ptr %171, ptr %2, align 8
  %172 = call ptr @pg_strtok(ptr noundef %3)
  store ptr %172, ptr %2, align 8
  %173 = load ptr, ptr %2, align 8
  %174 = load i32, ptr %3, align 4
  %175 = call ptr @nullable_string(ptr noundef %173, i32 noundef %174)
  store ptr %175, ptr %4, align 8
  %176 = load ptr, ptr %4, align 8
  %177 = call ptr @GetCustomScanMethods(ptr noundef %176, i1 noundef zeroext false)
  store ptr %177, ptr %5, align 8
  %178 = load ptr, ptr %5, align 8
  %179 = load ptr, ptr %1, align 8
  %180 = getelementptr inbounds nuw %struct.CustomScan, ptr %179, i32 0, i32 7
  store ptr %178, ptr %180, align 8
  call void @llvm.lifetime.end.p0(i64 8, ptr %5) #9
  call void @llvm.lifetime.end.p0(i64 8, ptr %4) #9
  %181 = load ptr, ptr %1, align 8
  call void @llvm.lifetime.end.p0(i64 4, ptr %3) #9
  call void @llvm.lifetime.end.p0(i64 8, ptr %2) #9
  call void @llvm.lifetime.end.p0(i64 8, ptr %1) #9
  ret ptr %181
}