; Function Attrs: nounwind uwtable
define internal fastcc noundef ptr @_readCustomScan() unnamed_addr #0 {
  %1 = alloca i32, align 4
  %2 = tail call noundef ptr @palloc0(i64 noundef 168) #10
  store i32 354, ptr %2, align 4
  call void @llvm.lifetime.start.p0(i64 4, ptr nonnull %1) #10
  %3 = call ptr @pg_strtok(ptr noundef nonnull %1) #10
  %4 = call ptr @pg_strtok(ptr noundef nonnull %1) #10
  %5 = call i64 @strtol(ptr noundef nonnull captures(none) %4, ptr noundef null, i32 noundef 10) #10
  %6 = trunc i64 %5 to i32
  %7 = getelementptr inbounds nuw i8, ptr %2, i64 4
  store i32 %6, ptr %7, align 4
  %8 = call ptr @pg_strtok(ptr noundef nonnull %1) #10
  %9 = call ptr @pg_strtok(ptr noundef nonnull %1) #10
  %10 = call double @strtod(ptr noundef nonnull captures(none) %9, ptr noundef null) #10
  %11 = getelementptr inbounds nuw i8, ptr %2, i64 8
  store double %10, ptr %11, align 8
  %12 = call ptr @pg_strtok(ptr noundef nonnull %1) #10
  %13 = call ptr @pg_strtok(ptr noundef nonnull %1) #10
  %14 = call double @strtod(ptr noundef nonnull captures(none) %13, ptr noundef null) #10
  %15 = getelementptr inbounds nuw i8, ptr %2, i64 16
  store double %14, ptr %15, align 8
  %16 = call ptr @pg_strtok(ptr noundef nonnull %1) #10
  %17 = call ptr @pg_strtok(ptr noundef nonnull %1) #10
  %18 = call double @strtod(ptr noundef nonnull captures(none) %17, ptr noundef null) #10
  %19 = getelementptr inbounds nuw i8, ptr %2, i64 24
  store double %18, ptr %19, align 8
  %20 = call ptr @pg_strtok(ptr noundef nonnull %1) #10
  %21 = call ptr @pg_strtok(ptr noundef nonnull %1) #10
  %22 = call i64 @strtol(ptr noundef nonnull captures(none) %21, ptr noundef null, i32 noundef 10) #10
  %23 = trunc i64 %22 to i32
  %24 = getelementptr inbounds nuw i8, ptr %2, i64 32
  store i32 %23, ptr %24, align 8
  %25 = call ptr @pg_strtok(ptr noundef nonnull %1) #10
  %26 = call ptr @pg_strtok(ptr noundef nonnull %1) #10
  %27 = load i8, ptr %26, align 1
  %28 = icmp eq i8 %27, 116
  %29 = getelementptr inbounds nuw i8, ptr %2, i64 36
  %30 = zext i1 %28 to i8
  store i8 %30, ptr %29, align 4
  %31 = call ptr @pg_strtok(ptr noundef nonnull %1) #10
  %32 = call ptr @pg_strtok(ptr noundef nonnull %1) #10
  %33 = load i8, ptr %32, align 1
  %34 = icmp eq i8 %33, 116
  %35 = getelementptr inbounds nuw i8, ptr %2, i64 37
  %36 = zext i1 %34 to i8
  store i8 %36, ptr %35, align 1
  %37 = call ptr @pg_strtok(ptr noundef nonnull %1) #10
  %38 = call ptr @pg_strtok(ptr noundef nonnull %1) #10
  %39 = load i8, ptr %38, align 1
  %40 = icmp eq i8 %39, 116
  %41 = getelementptr inbounds nuw i8, ptr %2, i64 38
  %42 = zext i1 %40 to i8
  store i8 %42, ptr %41, align 2
  %43 = call ptr @pg_strtok(ptr noundef nonnull %1) #10
  %44 = call ptr @pg_strtok(ptr noundef nonnull %1) #10
  %45 = call i64 @strtol(ptr noundef nonnull captures(none) %44, ptr noundef null, i32 noundef 10) #10
  %46 = trunc i64 %45 to i32
  %47 = getelementptr inbounds nuw i8, ptr %2, i64 40
  store i32 %46, ptr %47, align 8
  %48 = call ptr @pg_strtok(ptr noundef nonnull %1) #10
  %49 = call ptr @nodeRead(ptr noundef null, i32 noundef 0) #10
  %50 = getelementptr inbounds nuw i8, ptr %2, i64 48
  store ptr %49, ptr %50, align 8
  %51 = call ptr @pg_strtok(ptr noundef nonnull %1) #10
  %52 = call ptr @nodeRead(ptr noundef null, i32 noundef 0) #10
  %53 = getelementptr inbounds nuw i8, ptr %2, i64 56
  store ptr %52, ptr %53, align 8
  %54 = call ptr @pg_strtok(ptr noundef nonnull %1) #10
  %55 = call ptr @nodeRead(ptr noundef null, i32 noundef 0) #10
  %56 = getelementptr inbounds nuw i8, ptr %2, i64 64
  store ptr %55, ptr %56, align 8
  %57 = call ptr @pg_strtok(ptr noundef nonnull %1) #10
  %58 = call ptr @nodeRead(ptr noundef null, i32 noundef 0) #10
  %59 = getelementptr inbounds nuw i8, ptr %2, i64 72
  store ptr %58, ptr %59, align 8
  %60 = call ptr @pg_strtok(ptr noundef nonnull %1) #10
  %61 = call ptr @nodeRead(ptr noundef null, i32 noundef 0) #10
  %62 = getelementptr inbounds nuw i8, ptr %2, i64 80
  store ptr %61, ptr %62, align 8
  %63 = call ptr @pg_strtok(ptr noundef nonnull %1) #10
  %64 = call fastcc ptr @_readBitmapset()
  %65 = getelementptr inbounds nuw i8, ptr %2, i64 88
  store ptr %64, ptr %65, align 8
  %66 = call ptr @pg_strtok(ptr noundef nonnull %1) #10
  %67 = call fastcc ptr @_readBitmapset()
  %68 = getelementptr inbounds nuw i8, ptr %2, i64 96
  store ptr %67, ptr %68, align 8
  %69 = call ptr @pg_strtok(ptr noundef nonnull %1) #10
  %70 = call ptr @pg_strtok(ptr noundef nonnull %1) #10
  %71 = call i64 @strtoul(ptr noundef captures(none) %70, ptr noundef null, i32 noundef 10) #10
  %72 = trunc i64 %71 to i32
  %73 = getelementptr inbounds nuw i8, ptr %2, i64 104
  store i32 %72, ptr %73, align 8
  %74 = call ptr @pg_strtok(ptr noundef nonnull %1) #10
  %75 = call ptr @pg_strtok(ptr noundef nonnull %1) #10
  %76 = call i64 @strtoul(ptr noundef captures(none) %75, ptr noundef null, i32 noundef 10) #10
  %77 = trunc i64 %76 to i32
  %78 = getelementptr inbounds nuw i8, ptr %2, i64 112
  store i32 %77, ptr %78, align 8
  %79 = call ptr @pg_strtok(ptr noundef nonnull %1) #10
  %80 = call ptr @nodeRead(ptr noundef null, i32 noundef 0) #10
  %81 = getelementptr inbounds nuw i8, ptr %2, i64 120
  store ptr %80, ptr %81, align 8
  %82 = call ptr @pg_strtok(ptr noundef nonnull %1) #10
  %83 = call ptr @nodeRead(ptr noundef null, i32 noundef 0) #10
  %84 = getelementptr inbounds nuw i8, ptr %2, i64 128
  store ptr %83, ptr %84, align 8
  %85 = call ptr @pg_strtok(ptr noundef nonnull %1) #10
  %86 = call ptr @nodeRead(ptr noundef null, i32 noundef 0) #10
  %87 = getelementptr inbounds nuw i8, ptr %2, i64 136
  store ptr %86, ptr %87, align 8
  %88 = call ptr @pg_strtok(ptr noundef nonnull %1) #10
  %89 = call ptr @nodeRead(ptr noundef null, i32 noundef 0) #10
  %90 = getelementptr inbounds nuw i8, ptr %2, i64 144
  store ptr %89, ptr %90, align 8
  %91 = call ptr @pg_strtok(ptr noundef nonnull %1) #10
  %92 = call fastcc ptr @_readBitmapset()
  %93 = getelementptr inbounds nuw i8, ptr %2, i64 152
  store ptr %92, ptr %93, align 8
  %94 = call ptr @pg_strtok(ptr noundef nonnull %1) #10
  %95 = call ptr @pg_strtok(ptr noundef nonnull %1) #10
  %96 = load i32, ptr %1, align 4
  switch i32 %96, label %106 [
    i32 0, label %nullable_string.exit
    i32 2, label %97
  ]

97:                                               ; preds = %0
  %98 = load i8, ptr %95, align 1
  %99 = icmp eq i8 %98, 34
  br i1 %99, label %100, label %106

100:                                              ; preds = %97
  %101 = getelementptr inbounds nuw i8, ptr %95, i64 1
  %102 = load i8, ptr %101, align 1
  %103 = icmp eq i8 %102, 34
  br i1 %103, label %104, label %106

104:                                              ; preds = %100
  %105 = call ptr @pstrdup(ptr noundef nonnull @.str.326) #10
  br label %nullable_string.exit

106:                                              ; preds = %100, %97, %0
  %107 = call ptr @debackslash(ptr noundef %95, i32 noundef %96) #10
  br label %nullable_string.exit

nullable_string.exit:                             ; preds = %0, %104, %106
  %.0.i = phi ptr [ %105, %104 ], [ %107, %106 ], [ null, %0 ]
  %108 = call ptr @GetCustomScanMethods(ptr noundef %.0.i, i1 noundef zeroext false) #10
  %109 = getelementptr inbounds nuw i8, ptr %2, i64 160
  store ptr %108, ptr %109, align 8
  call void @llvm.lifetime.end.p0(i64 4, ptr nonnull %1) #10
  ret ptr %2
}